target datalayout = "e-m:e-p270:32:32-p271:32:32-p272:64:64-i64:64-i128:128-f80:128-n8:16:32:64-S128"
target triple = "x86_64-pc-linux-gnu"

%struct.Kit_Sop_t_ = type { i32, i32, ptr }
%struct.Vec_Int_t_ = type { i32, i32, ptr }

; Function Attrs: inlinehint nounwind uwtable
define internal void @Kit_SopPushCube(ptr noundef %0, i32 noundef %1) #2 {
  %3 = alloca ptr, align 8
  %4 = alloca i32, align 4
  store ptr %0, ptr %3, align 8, !tbaa !3
  store i32 %1, ptr %4, align 4, !tbaa !10
  %5 = load i32, ptr %4, align 4, !tbaa !10
  %6 = load ptr, ptr %3, align 8, !tbaa !3
  %7 = getelementptr inbounds nuw %struct.Kit_Sop_t_, ptr %6, i32 0, i32 2
  %8 = load ptr, ptr %7, align 8, !tbaa !15
  %9 = load ptr, ptr %3, align 8, !tbaa !3
  %10 = getelementptr inbounds nuw %struct.Kit_Sop_t_, ptr %9, i32 0, i32 1
  %11 = load i32, ptr %10, align 4, !tbaa !12
  %12 = add nsw i32 %11, 1
  store i32 %12, ptr %10, align 4, !tbaa !12
  %13 = sext i32 %11 to i64
  %14 = getelementptr inbounds i32, ptr %8, i64 %13
  store i32 %5, ptr %14, align 4, !tbaa !10
  ret void
}

; Function Attrs: inlinehint nounwind uwtable
define internal i32 @Kit_SopCube(ptr noundef %0, i32 noundef %1) #2 {
  %3 = alloca ptr, align 8
  %4 = alloca i32, align 4
  store ptr %0, ptr %3, align 8, !tbaa !3
  store i32 %1, ptr %4, align 4, !tbaa !10
  %5 = load ptr, ptr %3, align 8, !tbaa !3
  %6 = getelementptr inbounds nuw %struct.Kit_Sop_t_, ptr %5, i32 0, i32 2
  %7 = load ptr, ptr %6, align 8, !tbaa !15
  %8 = load i32, ptr %4, align 4, !tbaa !10
  %9 = sext i32 %8 to i64
  %10 = getelementptr inbounds i32, ptr %7, i64 %9
  %11 = load i32, ptr %10, align 4, !tbaa !10
  ret i32 %11
}

; Function Attrs: inlinehint nounwind uwtable
define internal ptr @Vec_IntFetch(ptr noundef %0, i32 noundef %1) #2 {
  %3 = alloca ptr, align 8
  %4 = alloca ptr, align 8
  %5 = alloca i32, align 4
  store ptr %0, ptr %4, align 8, !tbaa !8
  store i32 %1, ptr %5, align 4, !tbaa !10
  %6 = load i32, ptr %5, align 4, !tbaa !10
  %7 = icmp eq i32 %6, 0
  br i1 %7, label %8, label %9

8:                                                ; preds = %2
  store ptr null, ptr %3, align 8
  br label %36

9:                                                ; preds = %2
  %10 = load i32, ptr %5, align 4, !tbaa !10
  %11 = load ptr, ptr %4, align 8, !tbaa !8
  %12 = getelementptr inbounds nuw %struct.Vec_Int_t_, ptr %11, i32 0, i32 1
  %13 = load i32, ptr %12, align 4, !tbaa !18
  %14 = add nsw i32 %13, %10
  store i32 %14, ptr %12, align 4, !tbaa !18
  %15 = load ptr, ptr %4, align 8, !tbaa !8
  %16 = getelementptr inbounds nuw %struct.Vec_Int_t_, ptr %15, i32 0, i32 1
  %17 = load i32, ptr %16, align 4, !tbaa !18
  %18 = load ptr, ptr %4, align 8, !tbaa !8
  %19 = getelementptr inbounds nuw %struct.Vec_Int_t_, ptr %18, i32 0, i32 0
  %20 = load i32, ptr %19, align 8, !tbaa !20
  %21 = icmp sgt i32 %17, %20
  br i1 %21, label %22, label %23

22:                                               ; preds = %9
  store ptr null, ptr %3, align 8
  br label %36

23:                                               ; preds = %9
  %24 = load ptr, ptr %4, align 8, !tbaa !8
  %25 = getelementptr inbounds nuw %struct.Vec_Int_t_, ptr %24, i32 0, i32 2
  %26 = load ptr, ptr %25, align 8, !tbaa !21
  %27 = load ptr, ptr %4, align 8, !tbaa !8
  %28 = getelementptr inbounds nuw %struct.Vec_Int_t_, ptr %27, i32 0, i32 1
  %29 = load i32, ptr %28, align 4, !tbaa !18
  %30 = sext i32 %29 to i64
  %31 = getelementptr inbounds i32, ptr %26, i64 %30
  %32 = load i32, ptr %5, align 4, !tbaa !10
  %33 = sext i32 %32 to i64
  %34 = sub i64 0, %33
  %35 = getelementptr inbounds i32, ptr %31, i64 %34
  store ptr %35, ptr %3, align 8
  br label %36

36:                                               ; preds = %23, %22, %8
  %37 = load ptr, ptr %3, align 8
  ret ptr %37
}

; Function Attrs: inlinehint nounwind uwtable
define internal i32 @Kit_SopCubeNum(ptr noundef %0) #2 {
  %2 = alloca ptr, align 8
  store ptr %0, ptr %2, align 8, !tbaa !3
  %3 = load ptr, ptr %2, align 8, !tbaa !3
  %4 = getelementptr inbounds nuw %struct.Kit_Sop_t_, ptr %3, i32 0, i32 1
  %5 = load i32, ptr %4, align 4, !tbaa !12
  ret i32 %5
}

; Function Attrs: nounwind uwtable
define void @Kit_SopDup(ptr noundef %0, ptr noundef %1, ptr noundef %2) #0 {
  %4 = alloca ptr, align 8
  %5 = alloca ptr, align 8
  %6 = alloca ptr, align 8
  %7 = alloca i32, align 4
  %8 = alloca i32, align 4
  store ptr %0, ptr %4, align 8, !tbaa !3
  store ptr %1, ptr %5, align 8, !tbaa !3
  store ptr %2, ptr %6, align 8, !tbaa !8
  call void @llvm.lifetime.start.p0(i64 4, ptr %7) #3
  call void @llvm.lifetime.start.p0(i64 4, ptr %8) #3
  %9 = load ptr, ptr %4, align 8, !tbaa !3
  %10 = getelementptr inbounds nuw %struct.Kit_Sop_t_, ptr %9, i32 0, i32 1
  store i32 0, ptr %10, align 4, !tbaa !12
  %11 = load ptr, ptr %6, align 8, !tbaa !8
  %12 = load ptr, ptr %5, align 8, !tbaa !3
  %13 = call i32 @Kit_SopCubeNum(ptr noundef %12)
  %14 = call ptr @Vec_IntFetch(ptr noundef %11, i32 noundef %13)
  %15 = load ptr, ptr %4, align 8, !tbaa !3
  %16 = getelementptr inbounds nuw %struct.Kit_Sop_t_, ptr %15, i32 0, i32 2
  store ptr %14, ptr %16, align 8, !tbaa !15
  store i32 0, ptr %8, align 4, !tbaa !10
  br label %17

17:                                               ; preds = %32, %3
  %18 = load i32, ptr %8, align 4, !tbaa !10
  %19 = load ptr, ptr %5, align 8, !tbaa !3
  %20 = call i32 @Kit_SopCubeNum(ptr noundef %19)
  %21 = icmp slt i32 %18, %20
  br i1 %21, label %22, label %27

22:                                               ; preds = %17
  %23 = load ptr, ptr %5, align 8, !tbaa !3
  %24 = load i32, ptr %8, align 4, !tbaa !10
  %25 = call i32 @Kit_SopCube(ptr noundef %23, i32 noundef %24)
  store i32 %25, ptr %7, align 4, !tbaa !10
  %26 = icmp ne i32 %25, 0
  br label %27

27:                                               ; preds = %22, %17
  %28 = phi i1 [ false, %17 ], [ %26, %22 ]
  br i1 %28, label %29, label %35

29:                                               ; preds = %27
  %30 = load ptr, ptr %4, align 8, !tbaa !3
  %31 = load i32, ptr %7, align 4, !tbaa !10
  call void @Kit_SopPushCube(ptr noundef %30, i32 noundef %31)
  br label %32

32:                                               ; preds = %29
  %33 = load i32, ptr %8, align 4, !tbaa !10
  %34 = add nsw i32 %33, 1
  store i32 %34, ptr %8, align 4, !tbaa !10
  br label %17, !llvm.loop !23

35:                                               ; preds = %27
  call void @llvm.lifetime.end.p0(i64 4, ptr %8) #3
  call void @llvm.lifetime.end.p0(i64 4, ptr %7) #3
  ret void
}