; Function Attrs: nofree norecurse nosync nounwind memory(readwrite, inaccessiblemem: none) uwtable
define void @Kit_SopDup(ptr noundef captures(none) initializes((4, 16)) %0, ptr noundef readonly captures(none) %1, ptr noundef captures(none) %2) local_unnamed_addr #0 {
  %4 = getelementptr inbounds nuw i8, ptr %0, i64 4
  store i32 0, ptr %4, align 4, !tbaa !3
  %5 = getelementptr i8, ptr %1, i64 4
  %.val = load i32, ptr %5, align 4, !tbaa !3
  %6 = icmp eq i32 %.val, 0
  br i1 %6, label %Vec_IntFetch.exit.thread, label %8

Vec_IntFetch.exit.thread:                         ; preds = %3
  %7 = getelementptr inbounds nuw i8, ptr %0, i64 8
  store ptr null, ptr %7, align 8, !tbaa !12
  br label %.critedge

8:                                                ; preds = %3
  %9 = getelementptr inbounds nuw i8, ptr %2, i64 4
  %10 = load i32, ptr %9, align 4, !tbaa !10
  %11 = add nsw i32 %10, %.val
  store i32 %11, ptr %9, align 4, !tbaa !10
  %12 = load i32, ptr %2, align 8, !tbaa !13
  %13 = icmp sgt i32 %11, %12
  br i1 %13, label %Vec_IntFetch.exit, label %14

14:                                               ; preds = %8
  %15 = getelementptr inbounds nuw i8, ptr %2, i64 8
  %16 = load ptr, ptr %15, align 8, !tbaa !14
  %17 = sext i32 %11 to i64
  %18 = getelementptr inbounds i32, ptr %16, i64 %17
  %19 = sext i32 %.val to i64
  %20 = sub nsw i64 0, %19
  %21 = getelementptr inbounds i32, ptr %18, i64 %20
  br label %Vec_IntFetch.exit

Vec_IntFetch.exit:                                ; preds = %8, %14
  %.0.i = phi ptr [ %21, %14 ], [ null, %8 ]
  %22 = getelementptr inbounds nuw i8, ptr %0, i64 8
  store ptr %.0.i, ptr %22, align 8, !tbaa !12
  %23 = icmp sgt i32 %.val, 0
  br i1 %23, label %.lr.ph, label %.critedge

.lr.ph:                                           ; preds = %Vec_IntFetch.exit
  %24 = getelementptr i8, ptr %1, i64 8
  %.val12 = load ptr, ptr %24, align 8, !tbaa !12
  br label %25

25:                                               ; preds = %.lr.ph, %28
  %indvars.iv = phi i64 [ 0, %.lr.ph ], [ %indvars.iv.next, %28 ]
  %26 = getelementptr inbounds nuw i32, ptr %.val12, i64 %indvars.iv
  %27 = load i32, ptr %26, align 4, !tbaa !15
  %.not = icmp eq i32 %27, 0
  br i1 %.not, label %.critedge, label %28

28:                                               ; preds = %25
  %29 = load i32, ptr %4, align 4, !tbaa !3
  %30 = add nsw i32 %29, 1
  store i32 %30, ptr %4, align 4, !tbaa !3
  %31 = sext i32 %29 to i64
  %32 = getelementptr inbounds i32, ptr %.0.i, i64 %31
  store i32 %27, ptr %32, align 4, !tbaa !15
  %indvars.iv.next = add nuw nsw i64 %indvars.iv, 1
  %.val11 = load i32, ptr %5, align 4, !tbaa !3
  %33 = sext i32 %.val11 to i64
  %34 = icmp slt i64 %indvars.iv.next, %33
  br i1 %34, label %25, label %.critedge, !llvm.loop !19

.critedge:                                        ; preds = %25, %28, %Vec_IntFetch.exit.thread, %Vec_IntFetch.exit
  ret void
}